target datalayout = "e-m:e-p270:32:32-p271:32:32-p272:64:64-i64:64-i128:128-f80:128-n8:16:32:64-S128"
target triple = "x86_64-pc-linux-gnu"

%struct._object = type { %union.anon, ptr }
%union.anon = type { i64 }
%struct.PyModuleObject = type { %struct._object, ptr, ptr, ptr, ptr, ptr }
%struct.anon = type { i32, i32 }

@PyExc_OSError = external global ptr, align 8
@sock_cloexec_works = internal global i32 -1, align 4
@.str.62 = private unnamed_addr constant [16 x i8] c"|iii:socketpair\00", align 1

; Function Attrs: alwaysinline nounwind uwtable
define internal i32 @_Py_IsImmortal(ptr noundef %0) #8 {
  %2 = alloca ptr, align 8
  store ptr %0, ptr %2, align 8, !tbaa !3
  %3 = load ptr, ptr %2, align 8, !tbaa !3
  %4 = getelementptr inbounds nuw %struct._object, ptr %3, i32 0, i32 0
  %5 = getelementptr inbounds nuw %struct.anon, ptr %4, i32 0, i32 0
  %6 = load i32, ptr %5, align 8, !tbaa !35
  %7 = icmp slt i32 %6, 0
  %8 = zext i1 %7 to i32
  ret i32 %8
}

; Function Attrs: alwaysinline nounwind uwtable
define internal void @Py_DECREF(ptr noundef %0) #8 {
  %2 = alloca ptr, align 8
  store ptr %0, ptr %2, align 8, !tbaa !3
  %3 = load ptr, ptr %2, align 8, !tbaa !3
  %4 = call i32 @_Py_IsImmortal(ptr noundef %3)
  %5 = icmp ne i32 %4, 0
  br i1 %5, label %6, label %7

6:                                                ; preds = %1
  br label %16

7:                                                ; preds = %1
  %8 = load ptr, ptr %2, align 8, !tbaa !3
  %9 = getelementptr inbounds nuw %struct._object, ptr %8, i32 0, i32 0
  %10 = getelementptr inbounds nuw %struct.anon, ptr %9, i32 0, i32 0
  %11 = load i32, ptr %10, align 8, !tbaa !35
  %12 = add i32 %11, -1
  store i32 %12, ptr %10, align 8, !tbaa !35
  %13 = icmp eq i32 %12, 0
  br i1 %13, label %14, label %16

14:                                               ; preds = %7
  %15 = load ptr, ptr %2, align 8, !tbaa !3
  call void @_Py_Dealloc(ptr noundef %15)
  br label %16

16:                                               ; preds = %6, %14, %7
  ret void
}

; Function Attrs: inlinehint nounwind uwtable
define internal ptr @_PyModule_GetState(ptr noundef %0) #3 {
  %2 = alloca ptr, align 8
  store ptr %0, ptr %2, align 8, !tbaa !3
  %3 = load ptr, ptr %2, align 8, !tbaa !3
  %4 = getelementptr inbounds nuw %struct.PyModuleObject, ptr %3, i32 0, i32 3
  %5 = load ptr, ptr %4, align 8, !tbaa !95
  ret ptr %5
}

; Function Attrs: inlinehint nounwind uwtable
define internal void @Py_XDECREF(ptr noundef %0) #3 {
  %2 = alloca ptr, align 8
  store ptr %0, ptr %2, align 8, !tbaa !3
  %3 = load ptr, ptr %2, align 8, !tbaa !3
  %4 = icmp ne ptr %3, null
  br i1 %4, label %5, label %7

5:                                                ; preds = %1
  %6 = load ptr, ptr %2, align 8, !tbaa !3
  call void @Py_DECREF(ptr noundef %6)
  br label %7

7:                                                ; preds = %5, %1
  ret void
}

; Function Attrs: nounwind uwtable
define internal ptr @set_error() #0 {
  %1 = load ptr, ptr @PyExc_OSError, align 8, !tbaa !3
  %2 = call ptr @PyErr_SetFromErrno(ptr noundef %1)
  ret ptr %2
}

; Function Attrs: inlinehint nounwind uwtable
define internal void @_Py_atomic_store_int_relaxed(ptr noundef %0, i32 noundef %1) #3 {
  %3 = alloca ptr, align 8
  %4 = alloca i32, align 4
  %5 = alloca i32, align 4
  store ptr %0, ptr %3, align 8, !tbaa !50
  store i32 %1, ptr %4, align 4, !tbaa !15
  %6 = load ptr, ptr %3, align 8, !tbaa !50
  %7 = load i32, ptr %4, align 4, !tbaa !15
  store i32 %7, ptr %5, align 4, !tbaa !15
  %8 = load i32, ptr %5, align 4
  store atomic i32 %8, ptr %6 monotonic, align 4
  ret void
}

; Function Attrs: inlinehint nounwind uwtable
define internal i32 @_Py_atomic_load_int_relaxed(ptr noundef %0) #3 {
  %2 = alloca ptr, align 8
  %3 = alloca i32, align 4
  store ptr %0, ptr %2, align 8, !tbaa !50
  %4 = load ptr, ptr %2, align 8, !tbaa !50
  %5 = load atomic i32, ptr %4 monotonic, align 4
  store i32 %5, ptr %3, align 4
  %6 = load i32, ptr %3, align 4, !tbaa !15
  ret i32 %6
}

; Function Attrs: inlinehint nounwind uwtable
define internal ptr @get_module_state(ptr noundef %0) #3 {
  %2 = alloca ptr, align 8
  %3 = alloca ptr, align 8
  store ptr %0, ptr %2, align 8, !tbaa !3
  call void @llvm.lifetime.start.p0(i64 8, ptr %3) #10
  %4 = load ptr, ptr %2, align 8, !tbaa !3
  %5 = call ptr @_PyModule_GetState(ptr noundef %4)
  store ptr %5, ptr %3, align 8, !tbaa !8
  %6 = load ptr, ptr %3, align 8, !tbaa !8
  call void @llvm.lifetime.end.p0(i64 8, ptr %3) #10
  ret ptr %6
}

; Function Attrs: nounwind uwtable
define internal ptr @socket_socketpair(ptr noundef %0, ptr noundef %1) #0 {
  %3 = alloca ptr, align 8
  %4 = alloca ptr, align 8
  %5 = alloca ptr, align 8
  %6 = alloca ptr, align 8
  %7 = alloca ptr, align 8
  %8 = alloca [2 x i32], align 4
  %9 = alloca i32, align 4
  %10 = alloca i32, align 4
  %11 = alloca i32, align 4
  %12 = alloca ptr, align 8
  %13 = alloca ptr, align 8
  %14 = alloca ptr, align 8
  %15 = alloca i32, align 4
  %16 = alloca i32, align 4
  %17 = alloca ptr, align 8
  store ptr %0, ptr %4, align 8, !tbaa !3
  store ptr %1, ptr %5, align 8, !tbaa !3
  call void @llvm.lifetime.start.p0(i64 8, ptr %6) #10
  store ptr null, ptr %6, align 8, !tbaa !8
  call void @llvm.lifetime.start.p0(i64 8, ptr %7) #10
  store ptr null, ptr %7, align 8, !tbaa !8
  call void @llvm.lifetime.start.p0(i64 8, ptr %8) #10
  call void @llvm.lifetime.start.p0(i64 4, ptr %9) #10
  call void @llvm.lifetime.start.p0(i64 4, ptr %10) #10
  store i32 1, ptr %10, align 4, !tbaa !15
  call void @llvm.lifetime.start.p0(i64 4, ptr %11) #10
  store i32 0, ptr %11, align 4, !tbaa !15
  call void @llvm.lifetime.start.p0(i64 8, ptr %12) #10
  store ptr null, ptr %12, align 8, !tbaa !3
  call void @llvm.lifetime.start.p0(i64 8, ptr %13) #10
  %18 = load ptr, ptr %4, align 8, !tbaa !3
  %19 = call ptr @get_module_state(ptr noundef %18)
  store ptr %19, ptr %13, align 8, !tbaa !9
  call void @llvm.lifetime.start.p0(i64 8, ptr %14) #10
  store ptr @sock_cloexec_works, ptr %14, align 8, !tbaa !50
  call void @llvm.lifetime.start.p0(i64 4, ptr %15) #10
  store i32 1, ptr %9, align 4, !tbaa !15
  %20 = load ptr, ptr %5, align 8, !tbaa !3
  %21 = call i32 (ptr, ptr, ...) @PyArg_ParseTuple(ptr noundef %20, ptr noundef @.str.62, ptr noundef %9, ptr noundef %10, ptr noundef %11)
  %22 = icmp ne i32 %21, 0
  br i1 %22, label %24, label %23

23:                                               ; preds = %2
  store ptr null, ptr %3, align 8
  store i32 1, ptr %16, align 4
  br label %128

24:                                               ; preds = %2
  call void @llvm.lifetime.start.p0(i64 8, ptr %17) #10
  %25 = call ptr @PyEval_SaveThread()
  store ptr %25, ptr %17, align 8, !tbaa !26
  %26 = call i32 @_Py_atomic_load_int_relaxed(ptr noundef @sock_cloexec_works)
  %27 = icmp ne i32 %26, 0
  br i1 %27, label %28, label %54

28:                                               ; preds = %24
  %29 = load i32, ptr %9, align 4, !tbaa !15
  %30 = load i32, ptr %10, align 4, !tbaa !15
  %31 = or i32 %30, 524288
  %32 = load i32, ptr %11, align 4, !tbaa !15
  %33 = getelementptr inbounds [2 x i32], ptr %8, i64 0, i64 0
  %34 = call i32 @socketpair(i32 noundef %29, i32 noundef %31, i32 noundef %32, ptr noundef %33) #10
  store i32 %34, ptr %15, align 4, !tbaa !15
  %35 = call i32 @_Py_atomic_load_int_relaxed(ptr noundef @sock_cloexec_works)
  %36 = icmp eq i32 %35, -1
  br i1 %36, label %37, label %53

37:                                               ; preds = %28
  %38 = load i32, ptr %15, align 4, !tbaa !15
  %39 = icmp sge i32 %38, 0
  br i1 %39, label %40, label %41

40:                                               ; preds = %37
  call void @_Py_atomic_store_int_relaxed(ptr noundef @sock_cloexec_works, i32 noundef 1)
  br label %52

41:                                               ; preds = %37
  %42 = call ptr @__errno_location() #11
  %43 = load i32, ptr %42, align 4, !tbaa !15
  %44 = icmp eq i32 %43, 22
  br i1 %44, label %45, label %51

45:                                               ; preds = %41
  call void @_Py_atomic_store_int_relaxed(ptr noundef @sock_cloexec_works, i32 noundef 0)
  %46 = load i32, ptr %9, align 4, !tbaa !15
  %47 = load i32, ptr %10, align 4, !tbaa !15
  %48 = load i32, ptr %11, align 4, !tbaa !15
  %49 = getelementptr inbounds [2 x i32], ptr %8, i64 0, i64 0
  %50 = call i32 @socketpair(i32 noundef %46, i32 noundef %47, i32 noundef %48, ptr noundef %49) #10
  store i32 %50, ptr %15, align 4, !tbaa !15
  br label %51

51:                                               ; preds = %45, %41
  br label %52

52:                                               ; preds = %51, %40
  br label %53

53:                                               ; preds = %52, %28
  br label %60

54:                                               ; preds = %24
  %55 = load i32, ptr %9, align 4, !tbaa !15
  %56 = load i32, ptr %10, align 4, !tbaa !15
  %57 = load i32, ptr %11, align 4, !tbaa !15
  %58 = getelementptr inbounds [2 x i32], ptr %8, i64 0, i64 0
  %59 = call i32 @socketpair(i32 noundef %55, i32 noundef %56, i32 noundef %57, ptr noundef %58) #10
  store i32 %59, ptr %15, align 4, !tbaa !15
  br label %60

60:                                               ; preds = %54, %53
  %61 = load ptr, ptr %17, align 8, !tbaa !26
  call void @PyEval_RestoreThread(ptr noundef %61)
  call void @llvm.lifetime.end.p0(i64 8, ptr %17) #10
  %62 = load i32, ptr %15, align 4, !tbaa !15
  %63 = icmp slt i32 %62, 0
  br i1 %63, label %64, label %66

64:                                               ; preds = %60
  %65 = call ptr @set_error()
  store ptr %65, ptr %3, align 8
  store i32 1, ptr %16, align 4
  br label %128

66:                                               ; preds = %60
  %67 = getelementptr [2 x i32], ptr %8, i64 0, i64 0
  %68 = load i32, ptr %67, align 4, !tbaa !15
  %69 = load ptr, ptr %14, align 8, !tbaa !50
  %70 = call i32 @_Py_set_inheritable(i32 noundef %68, i32 noundef 0, ptr noundef %69)
  %71 = icmp slt i32 %70, 0
  br i1 %71, label %72, label %73

72:                                               ; preds = %66
  br label %106

73:                                               ; preds = %66
  %74 = getelementptr [2 x i32], ptr %8, i64 0, i64 1
  %75 = load i32, ptr %74, align 4, !tbaa !15
  %76 = load ptr, ptr %14, align 8, !tbaa !50
  %77 = call i32 @_Py_set_inheritable(i32 noundef %75, i32 noundef 0, ptr noundef %76)
  %78 = icmp slt i32 %77, 0
  br i1 %78, label %79, label %80

79:                                               ; preds = %73
  br label %106

80:                                               ; preds = %73
  %81 = load ptr, ptr %13, align 8, !tbaa !9
  %82 = getelementptr [2 x i32], ptr %8, i64 0, i64 0
  %83 = load i32, ptr %82, align 4, !tbaa !15
  %84 = load i32, ptr %9, align 4, !tbaa !15
  %85 = load i32, ptr %10, align 4, !tbaa !15
  %86 = load i32, ptr %11, align 4, !tbaa !15
  %87 = call ptr @new_sockobject(ptr noundef %81, i32 noundef %83, i32 noundef %84, i32 noundef %85, i32 noundef %86)
  store ptr %87, ptr %6, align 8, !tbaa !8
  %88 = load ptr, ptr %6, align 8, !tbaa !8
  %89 = icmp eq ptr %88, null
  br i1 %89, label %90, label %91

90:                                               ; preds = %80
  br label %106

91:                                               ; preds = %80
  %92 = load ptr, ptr %13, align 8, !tbaa !9
  %93 = getelementptr [2 x i32], ptr %8, i64 0, i64 1
  %94 = load i32, ptr %93, align 4, !tbaa !15
  %95 = load i32, ptr %9, align 4, !tbaa !15
  %96 = load i32, ptr %10, align 4, !tbaa !15
  %97 = load i32, ptr %11, align 4, !tbaa !15
  %98 = call ptr @new_sockobject(ptr noundef %92, i32 noundef %94, i32 noundef %95, i32 noundef %96, i32 noundef %97)
  store ptr %98, ptr %7, align 8, !tbaa !8
  %99 = load ptr, ptr %7, align 8, !tbaa !8
  %100 = icmp eq ptr %99, null
  br i1 %100, label %101, label %102

101:                                              ; preds = %91
  br label %106

102:                                              ; preds = %91
  %103 = load ptr, ptr %6, align 8, !tbaa !8
  %104 = load ptr, ptr %7, align 8, !tbaa !8
  %105 = call ptr (i64, ...) @PyTuple_Pack(i64 noundef 2, ptr noundef %103, ptr noundef %104)
  store ptr %105, ptr %12, align 8, !tbaa !3
  br label %106

106:                                              ; preds = %102, %101, %90, %79, %72
  %107 = load ptr, ptr %12, align 8, !tbaa !3
  %108 = icmp eq ptr %107, null
  br i1 %108, label %109, label %124

109:                                              ; preds = %106
  %110 = load ptr, ptr %6, align 8, !tbaa !8
  %111 = icmp eq ptr %110, null
  br i1 %111, label %112, label %116

112:                                              ; preds = %109
  %113 = getelementptr [2 x i32], ptr %8, i64 0, i64 0
  %114 = load i32, ptr %113, align 4, !tbaa !15
  %115 = call i32 @close(i32 noundef %114)
  br label %116

116:                                              ; preds = %112, %109
  %117 = load ptr, ptr %7, align 8, !tbaa !8
  %118 = icmp eq ptr %117, null
  br i1 %118, label %119, label %123

119:                                              ; preds = %116
  %120 = getelementptr [2 x i32], ptr %8, i64 0, i64 1
  %121 = load i32, ptr %120, align 4, !tbaa !15
  %122 = call i32 @close(i32 noundef %121)
  br label %123

123:                                              ; preds = %119, %116
  br label %124

124:                                              ; preds = %123, %106
  %125 = load ptr, ptr %6, align 8, !tbaa !8
  call void @Py_XDECREF(ptr noundef %125)
  %126 = load ptr, ptr %7, align 8, !tbaa !8
  call void @Py_XDECREF(ptr noundef %126)
  %127 = load ptr, ptr %12, align 8, !tbaa !3
  store ptr %127, ptr %3, align 8
  store i32 1, ptr %16, align 4
  br label %128

128:                                              ; preds = %124, %64, %23
  call void @llvm.lifetime.end.p0(i64 4, ptr %15) #10
  call void @llvm.lifetime.end.p0(i64 8, ptr %14) #10
  call void @llvm.lifetime.end.p0(i64 8, ptr %13) #10
  call void @llvm.lifetime.end.p0(i64 8, ptr %12) #10
  call void @llvm.lifetime.end.p0(i64 4, ptr %11) #10
  call void @llvm.lifetime.end.p0(i64 4, ptr %10) #10
  call void @llvm.lifetime.end.p0(i64 4, ptr %9) #10
  call void @llvm.lifetime.end.p0(i64 8, ptr %8) #10
  call void @llvm.lifetime.end.p0(i64 8, ptr %7) #10
  call void @llvm.lifetime.end.p0(i64 8, ptr %6) #10
  %129 = load ptr, ptr %3, align 8
  ret ptr %129
}