; Function Attrs: nounwind uwtable
define internal ptr @socket_socketpair(ptr noundef readonly captures(none) %0, ptr noundef %1) #0 {
  %3 = alloca [2 x i32], align 4
  %4 = alloca i32, align 4
  %5 = alloca i32, align 4
  %6 = alloca i32, align 4
  call void @llvm.lifetime.start.p0(i64 8, ptr nonnull %3) #13
  call void @llvm.lifetime.start.p0(i64 4, ptr nonnull %4) #13
  call void @llvm.lifetime.start.p0(i64 4, ptr nonnull %5) #13
  store i32 1, ptr %5, align 4, !tbaa !35
  call void @llvm.lifetime.start.p0(i64 4, ptr nonnull %6) #13
  store i32 0, ptr %6, align 4, !tbaa !35
  %7 = getelementptr i8, ptr %0, i64 32
  %.val = load ptr, ptr %7, align 8, !tbaa !3
  store i32 1, ptr %4, align 4, !tbaa !35
  %8 = call i32 (ptr, ptr, ...) @PyArg_ParseTuple(ptr noundef %1, ptr noundef nonnull @.str.62, ptr noundef nonnull %4, ptr noundef nonnull %5, ptr noundef nonnull %6) #13
  %.not = icmp eq i32 %8, 0
  br i1 %.not, label %Py_XDECREF.exit31, label %9

9:                                                ; preds = %2
  %10 = call ptr @PyEval_SaveThread() #13
  %11 = load atomic i32, ptr @sock_cloexec_works monotonic, align 4
  %.not28 = icmp eq i32 %11, 0
  %12 = load i32, ptr %4, align 4, !tbaa !35
  %13 = load i32, ptr %5, align 4, !tbaa !35
  br i1 %.not28, label %31, label %14

14:                                               ; preds = %9
  %15 = or i32 %13, 524288
  %16 = load i32, ptr %6, align 4, !tbaa !35
  %17 = call i32 @socketpair(i32 noundef %12, i32 noundef %15, i32 noundef %16, ptr noundef nonnull %3) #13
  %18 = load atomic i32, ptr @sock_cloexec_works monotonic, align 4
  %19 = icmp eq i32 %18, -1
  br i1 %19, label %20, label %34

20:                                               ; preds = %14
  %21 = icmp sgt i32 %17, -1
  br i1 %21, label %.thread33, label %22

.thread33:                                        ; preds = %20
  store atomic i32 1, ptr @sock_cloexec_works monotonic, align 4
  call void @PyEval_RestoreThread(ptr noundef %10) #13
  br label %39

22:                                               ; preds = %20
  %23 = tail call ptr @__errno_location() #14
  %24 = load i32, ptr %23, align 4, !tbaa !35
  %25 = icmp eq i32 %24, 22
  br i1 %25, label %26, label %.thread

.thread:                                          ; preds = %22
  call void @PyEval_RestoreThread(ptr noundef %10) #13
  br label %36

26:                                               ; preds = %22
  store atomic i32 0, ptr @sock_cloexec_works monotonic, align 4
  %27 = load i32, ptr %4, align 4, !tbaa !35
  %28 = load i32, ptr %5, align 4, !tbaa !35
  %29 = load i32, ptr %6, align 4, !tbaa !35
  %30 = call i32 @socketpair(i32 noundef %27, i32 noundef %28, i32 noundef %29, ptr noundef nonnull %3) #13
  br label %34

31:                                               ; preds = %9
  %32 = load i32, ptr %6, align 4, !tbaa !35
  %33 = call i32 @socketpair(i32 noundef %12, i32 noundef %13, i32 noundef %32, ptr noundef nonnull %3) #13
  br label %34

34:                                               ; preds = %14, %26, %31
  %.019 = phi i32 [ %30, %26 ], [ %17, %14 ], [ %33, %31 ]
  call void @PyEval_RestoreThread(ptr noundef %10) #13
  %35 = icmp slt i32 %.019, 0
  br i1 %35, label %36, label %39

36:                                               ; preds = %.thread, %34
  %37 = load ptr, ptr @PyExc_OSError, align 8, !tbaa !19
  %38 = call ptr @PyErr_SetFromErrno(ptr noundef %37) #13
  br label %Py_XDECREF.exit31

39:                                               ; preds = %.thread33, %34
  %40 = load i32, ptr %3, align 4, !tbaa !35
  %41 = call i32 @_Py_set_inheritable(i32 noundef %40, i32 noundef 0, ptr noundef nonnull @sock_cloexec_works) #13
  %42 = icmp slt i32 %41, 0
  br i1 %42, label %Py_XDECREF.exit.thread, label %43

43:                                               ; preds = %39
  %44 = getelementptr inbounds nuw i8, ptr %3, i64 4
  %45 = load i32, ptr %44, align 4, !tbaa !35
  %46 = call i32 @_Py_set_inheritable(i32 noundef %45, i32 noundef 0, ptr noundef nonnull @sock_cloexec_works) #13
  %47 = icmp slt i32 %46, 0
  br i1 %47, label %Py_XDECREF.exit.thread, label %48

48:                                               ; preds = %43
  %49 = load i32, ptr %3, align 4, !tbaa !35
  %50 = load i32, ptr %4, align 4, !tbaa !35
  %51 = load i32, ptr %5, align 4, !tbaa !35
  %52 = load i32, ptr %6, align 4, !tbaa !35
  %53 = call fastcc ptr @new_sockobject(ptr noundef %.val, i32 noundef %49, i32 noundef %50, i32 noundef %51, i32 noundef %52)
  %54 = icmp eq ptr %53, null
  br i1 %54, label %Py_XDECREF.exit.thread, label %55

55:                                               ; preds = %48
  %56 = load i32, ptr %44, align 4, !tbaa !35
  %57 = load i32, ptr %4, align 4, !tbaa !35
  %58 = load i32, ptr %5, align 4, !tbaa !35
  %59 = load i32, ptr %6, align 4, !tbaa !35
  %60 = call fastcc ptr @new_sockobject(ptr noundef %.val, i32 noundef %56, i32 noundef %57, i32 noundef %58, i32 noundef %59)
  %61 = icmp eq ptr %60, null
  br i1 %61, label %69, label %62

62:                                               ; preds = %55
  %63 = call ptr (i64, ...) @PyTuple_Pack(i64 noundef 2, ptr noundef nonnull %53, ptr noundef nonnull %60) #13
  br label %.thread65

Py_XDECREF.exit.thread:                           ; preds = %48, %43, %39
  %64 = load i32, ptr %3, align 4, !tbaa !35
  %65 = call i32 @close(i32 noundef %64) #13
  %66 = getelementptr inbounds nuw i8, ptr %3, i64 4
  %67 = load i32, ptr %66, align 4, !tbaa !35
  %68 = call i32 @close(i32 noundef %67) #13
  br label %Py_XDECREF.exit31

69:                                               ; preds = %55
  %70 = load i32, ptr %44, align 4, !tbaa !35
  %71 = call i32 @close(i32 noundef %70) #13
  br label %.thread65

.thread65:                                        ; preds = %62, %69
  %.0223973 = phi ptr [ null, %69 ], [ %63, %62 ]
  %72 = load i32, ptr %53, align 8, !tbaa !18
  %.not.i.i = icmp sgt i32 %72, -1
  br i1 %.not.i.i, label %73, label %Py_XDECREF.exit

73:                                               ; preds = %.thread65
  %74 = add nsw i32 %72, -1
  store i32 %74, ptr %53, align 8, !tbaa !18
  %75 = icmp eq i32 %74, 0
  br i1 %75, label %76, label %Py_XDECREF.exit

76:                                               ; preds = %73
  call void @_Py_Dealloc(ptr noundef nonnull %53) #13
  br label %Py_XDECREF.exit

Py_XDECREF.exit:                                  ; preds = %.thread65, %73, %76
  br i1 %61, label %Py_XDECREF.exit31, label %77

77:                                               ; preds = %Py_XDECREF.exit
  %78 = load i32, ptr %60, align 8, !tbaa !18
  %.not.i.i30 = icmp sgt i32 %78, -1
  br i1 %.not.i.i30, label %79, label %Py_XDECREF.exit31

79:                                               ; preds = %77
  %80 = add nsw i32 %78, -1
  store i32 %80, ptr %60, align 8, !tbaa !18
  %81 = icmp eq i32 %80, 0
  br i1 %81, label %82, label %Py_XDECREF.exit31

82:                                               ; preds = %79
  call void @_Py_Dealloc(ptr noundef nonnull %60) #13
  br label %Py_XDECREF.exit31

Py_XDECREF.exit31:                                ; preds = %82, %79, %77, %Py_XDECREF.exit, %Py_XDECREF.exit.thread, %2, %36
  %.0 = phi ptr [ %38, %36 ], [ null, %2 ], [ null, %Py_XDECREF.exit.thread ], [ %.0223973, %Py_XDECREF.exit ], [ %.0223973, %77 ], [ %.0223973, %79 ], [ %.0223973, %82 ]
  call void @llvm.lifetime.end.p0(i64 4, ptr nonnull %6) #13
  call void @llvm.lifetime.end.p0(i64 4, ptr nonnull %5) #13
  call void @llvm.lifetime.end.p0(i64 4, ptr nonnull %4) #13
  call void @llvm.lifetime.end.p0(i64 8, ptr nonnull %3) #13
  ret ptr %.0
}